target datalayout = "e-m:e-p270:32:32-p271:32:32-p272:64:64-i64:64-i128:128-f80:128-n8:16:32:64-S128"
target triple = "x86_64-pc-linux-gnu"

%struct.Bucket = type { %struct._PyRawMutex, %struct.llist_node, i64 }
%struct._PyRawMutex = type { i64 }
%struct.llist_node = type { ptr, ptr }
%struct._PySemaphore = type { %union.sem_t }
%union.sem_t = type { i64, [24 x i8] }
%struct.wait_entry = type { ptr, i64, %struct._PySemaphore, %struct.llist_node, i8 }

@__func__._PySemaphore_Wakeup = private unnamed_addr constant [20 x i8] c"_PySemaphore_Wakeup\00", align 1
@.str.1 = private unnamed_addr constant [29 x i8] c"parking_lot: sem_post failed\00", align 1

; Function Attrs: inlinehint nounwind uwtable
define internal void @llist_remove(ptr noundef %0) #4 {
  %2 = alloca ptr, align 8
  %3 = alloca ptr, align 8
  %4 = alloca ptr, align 8
  store ptr %0, ptr %2, align 8, !tbaa !36
  call void @llvm.lifetime.start.p0(i64 8, ptr %3) #9
  %5 = load ptr, ptr %2, align 8, !tbaa !36
  %6 = getelementptr inbounds nuw %struct.llist_node, ptr %5, i32 0, i32 1
  %7 = load ptr, ptr %6, align 8, !tbaa !37
  store ptr %7, ptr %3, align 8, !tbaa !36
  call void @llvm.lifetime.start.p0(i64 8, ptr %4) #9
  %8 = load ptr, ptr %2, align 8, !tbaa !36
  %9 = getelementptr inbounds nuw %struct.llist_node, ptr %8, i32 0, i32 0
  %10 = load ptr, ptr %9, align 8, !tbaa !38
  store ptr %10, ptr %4, align 8, !tbaa !36
  %11 = load ptr, ptr %4, align 8, !tbaa !36
  %12 = load ptr, ptr %3, align 8, !tbaa !36
  %13 = getelementptr inbounds nuw %struct.llist_node, ptr %12, i32 0, i32 0
  store ptr %11, ptr %13, align 8, !tbaa !38
  %14 = load ptr, ptr %3, align 8, !tbaa !36
  %15 = load ptr, ptr %4, align 8, !tbaa !36
  %16 = getelementptr inbounds nuw %struct.llist_node, ptr %15, i32 0, i32 1
  store ptr %14, ptr %16, align 8, !tbaa !37
  %17 = load ptr, ptr %2, align 8, !tbaa !36
  %18 = getelementptr inbounds nuw %struct.llist_node, ptr %17, i32 0, i32 1
  store ptr null, ptr %18, align 8, !tbaa !37
  %19 = load ptr, ptr %2, align 8, !tbaa !36
  %20 = getelementptr inbounds nuw %struct.llist_node, ptr %19, i32 0, i32 0
  store ptr null, ptr %20, align 8, !tbaa !38
  call void @llvm.lifetime.end.p0(i64 8, ptr %4) #9
  call void @llvm.lifetime.end.p0(i64 8, ptr %3) #9
  ret void
}

; Function Attrs: inlinehint nounwind uwtable
define internal i32 @_Py_atomic_compare_exchange_uintptr(ptr noundef %0, ptr noundef %1, i64 noundef %2) #4 {
  %4 = alloca ptr, align 8
  %5 = alloca ptr, align 8
  %6 = alloca i64, align 8
  %7 = alloca i64, align 8
  %8 = alloca i8, align 1
  store ptr %0, ptr %4, align 8, !tbaa !45
  store ptr %1, ptr %5, align 8, !tbaa !45
  store i64 %2, ptr %6, align 8, !tbaa !9
  %9 = load ptr, ptr %4, align 8, !tbaa !45
  %10 = load ptr, ptr %5, align 8, !tbaa !45
  %11 = load i64, ptr %6, align 8, !tbaa !9
  store i64 %11, ptr %7, align 8, !tbaa !9
  %12 = load i64, ptr %10, align 8
  %13 = load i64, ptr %7, align 8
  %14 = cmpxchg ptr %9, i64 %12, i64 %13 seq_cst seq_cst, align 8
  %15 = extractvalue { i64, i1 } %14, 0
  %16 = extractvalue { i64, i1 } %14, 1
  br i1 %16, label %18, label %17

17:                                               ; preds = %3
  store i64 %15, ptr %10, align 8
  br label %18

18:                                               ; preds = %17, %3
  %19 = zext i1 %16 to i8
  store i8 %19, ptr %8, align 1, !tbaa !47
  %20 = load i8, ptr %8, align 1, !tbaa !47, !range !24, !noundef !25
  %21 = trunc i8 %20 to i1
  %22 = zext i1 %21 to i32
  ret i32 %22
}

; Function Attrs: nounwind uwtable
define dso_local void @_PySemaphore_Wakeup(ptr noundef %0) #0 {
  %2 = alloca ptr, align 8
  %3 = alloca i32, align 4
  store ptr %0, ptr %2, align 8, !tbaa !4
  call void @llvm.lifetime.start.p0(i64 4, ptr %3) #9
  %4 = load ptr, ptr %2, align 8, !tbaa !4
  %5 = getelementptr inbounds nuw %struct._PySemaphore, ptr %4, i32 0, i32 0
  %6 = call i32 @sem_post(ptr noundef %5) #9
  store i32 %6, ptr %3, align 4, !tbaa !11
  %7 = load i32, ptr %3, align 4, !tbaa !11
  %8 = icmp ne i32 %7, 0
  br i1 %8, label %9, label %10

9:                                                ; preds = %1
  call void @_Py_FatalErrorFunc(ptr noundef @__func__._PySemaphore_Wakeup, ptr noundef @.str.1) #10
  unreachable

10:                                               ; preds = %1
  call void @llvm.lifetime.end.p0(i64 4, ptr %3) #9
  ret void
}

; Function Attrs: inlinehint nounwind uwtable
define internal void @_PyRawMutex_Unlock(ptr noundef %0) #4 {
  %2 = alloca ptr, align 8
  %3 = alloca i64, align 8
  %4 = alloca i32, align 4
  store ptr %0, ptr %2, align 8, !tbaa !15
  call void @llvm.lifetime.start.p0(i64 8, ptr %3) #9
  store i64 1, ptr %3, align 8, !tbaa !9
  %5 = load ptr, ptr %2, align 8, !tbaa !15
  %6 = getelementptr inbounds nuw %struct._PyRawMutex, ptr %5, i32 0, i32 0
  %7 = call i32 @_Py_atomic_compare_exchange_uintptr(ptr noundef %6, ptr noundef %3, i64 noundef 0)
  %8 = icmp ne i32 %7, 0
  br i1 %8, label %9, label %10

9:                                                ; preds = %1
  store i32 1, ptr %4, align 4
  br label %12

10:                                               ; preds = %1
  %11 = load ptr, ptr %2, align 8, !tbaa !15
  call void @_PyRawMutex_UnlockSlow(ptr noundef %11)
  store i32 0, ptr %4, align 4
  br label %12

12:                                               ; preds = %10, %9
  call void @llvm.lifetime.end.p0(i64 8, ptr %3) #9
  %13 = load i32, ptr %4, align 4
  switch i32 %13, label %15 [
    i32 0, label %14
    i32 1, label %14
  ]

14:                                               ; preds = %12, %12
  ret void

15:                                               ; preds = %12
  unreachable
}

; Function Attrs: nounwind uwtable
define internal ptr @dequeue(ptr noundef %0, ptr noundef %1) #0 {
  %3 = alloca ptr, align 8
  %4 = alloca ptr, align 8
  %5 = alloca ptr, align 8
  %6 = alloca ptr, align 8
  %7 = alloca ptr, align 8
  %8 = alloca ptr, align 8
  %9 = alloca i32, align 4
  store ptr %0, ptr %4, align 8, !tbaa !15
  store ptr %1, ptr %5, align 8, !tbaa !15
  call void @llvm.lifetime.start.p0(i64 8, ptr %6) #9
  %10 = load ptr, ptr %4, align 8, !tbaa !15
  %11 = getelementptr inbounds nuw %struct.Bucket, ptr %10, i32 0, i32 1
  store ptr %11, ptr %6, align 8, !tbaa !36
  call void @llvm.lifetime.start.p0(i64 8, ptr %7) #9
  %12 = load ptr, ptr %6, align 8, !tbaa !36
  %13 = getelementptr inbounds nuw %struct.llist_node, ptr %12, i32 0, i32 0
  %14 = load ptr, ptr %13, align 8, !tbaa !38
  store ptr %14, ptr %7, align 8, !tbaa !36
  br label %15

15:                                               ; preds = %41, %2
  %16 = load ptr, ptr %7, align 8, !tbaa !36
  %17 = load ptr, ptr %6, align 8, !tbaa !36
  %18 = icmp ne ptr %16, %17
  br i1 %18, label %19, label %45

19:                                               ; preds = %15
  call void @llvm.lifetime.start.p0(i64 8, ptr %8) #9
  %20 = load ptr, ptr %7, align 8, !tbaa !36
  %21 = getelementptr i8, ptr %20, i64 -48
  store ptr %21, ptr %8, align 8, !tbaa !34
  %22 = load ptr, ptr %8, align 8, !tbaa !34
  %23 = getelementptr inbounds nuw %struct.wait_entry, ptr %22, i32 0, i32 1
  %24 = load i64, ptr %23, align 8, !tbaa !22
  %25 = load ptr, ptr %5, align 8, !tbaa !15
  %26 = ptrtoint ptr %25 to i64
  %27 = icmp eq i64 %24, %26
  br i1 %27, label %28, label %37

28:                                               ; preds = %19
  %29 = load ptr, ptr %7, align 8, !tbaa !36
  call void @llist_remove(ptr noundef %29)
  %30 = load ptr, ptr %4, align 8, !tbaa !15
  %31 = getelementptr inbounds nuw %struct.Bucket, ptr %30, i32 0, i32 2
  %32 = load i64, ptr %31, align 8, !tbaa !28
  %33 = add i64 %32, -1
  store i64 %33, ptr %31, align 8, !tbaa !28
  %34 = load ptr, ptr %8, align 8, !tbaa !34
  %35 = getelementptr inbounds nuw %struct.wait_entry, ptr %34, i32 0, i32 4
  store i8 1, ptr %35, align 8, !tbaa !23
  %36 = load ptr, ptr %8, align 8, !tbaa !34
  store ptr %36, ptr %3, align 8
  store i32 1, ptr %9, align 4
  br label %38

37:                                               ; preds = %19
  store i32 0, ptr %9, align 4
  br label %38

38:                                               ; preds = %37, %28
  call void @llvm.lifetime.end.p0(i64 8, ptr %8) #9
  %39 = load i32, ptr %9, align 4
  switch i32 %39, label %46 [
    i32 0, label %40
  ]

40:                                               ; preds = %38
  br label %41

41:                                               ; preds = %40
  %42 = load ptr, ptr %7, align 8, !tbaa !36
  %43 = getelementptr inbounds nuw %struct.llist_node, ptr %42, i32 0, i32 0
  %44 = load ptr, ptr %43, align 8, !tbaa !38
  store ptr %44, ptr %7, align 8, !tbaa !36
  br label %15, !llvm.loop !39

45:                                               ; preds = %15
  store ptr null, ptr %3, align 8
  store i32 1, ptr %9, align 4
  br label %46

46:                                               ; preds = %45, %38
  call void @llvm.lifetime.end.p0(i64 8, ptr %7) #9
  call void @llvm.lifetime.end.p0(i64 8, ptr %6) #9
  %47 = load ptr, ptr %3, align 8
  ret ptr %47
}

; Function Attrs: inlinehint nounwind uwtable
define internal void @_PyRawMutex_Lock(ptr noundef %0) #4 {
  %2 = alloca ptr, align 8
  %3 = alloca i64, align 8
  %4 = alloca i32, align 4
  store ptr %0, ptr %2, align 8, !tbaa !15
  call void @llvm.lifetime.start.p0(i64 8, ptr %3) #9
  store i64 0, ptr %3, align 8, !tbaa !9
  %5 = load ptr, ptr %2, align 8, !tbaa !15
  %6 = getelementptr inbounds nuw %struct._PyRawMutex, ptr %5, i32 0, i32 0
  %7 = call i32 @_Py_atomic_compare_exchange_uintptr(ptr noundef %6, ptr noundef %3, i64 noundef 1)
  %8 = icmp ne i32 %7, 0
  br i1 %8, label %9, label %10

9:                                                ; preds = %1
  store i32 1, ptr %4, align 4
  br label %12

10:                                               ; preds = %1
  %11 = load ptr, ptr %2, align 8, !tbaa !15
  call void @_PyRawMutex_LockSlow(ptr noundef %11)
  store i32 0, ptr %4, align 4
  br label %12

12:                                               ; preds = %10, %9
  call void @llvm.lifetime.end.p0(i64 8, ptr %3) #9
  %13 = load i32, ptr %4, align 4
  switch i32 %13, label %15 [
    i32 0, label %14
    i32 1, label %14
  ]

14:                                               ; preds = %12, %12
  ret void

15:                                               ; preds = %12
  unreachable
}

; Function Attrs: nounwind uwtable
define dso_local void @_PyParkingLot_Unpark(ptr noundef %0, ptr noundef %1, ptr noundef %2) #0 {
  %4 = alloca ptr, align 8
  %5 = alloca ptr, align 8
  %6 = alloca ptr, align 8
  %7 = alloca ptr, align 8
  %8 = alloca ptr, align 8
  %9 = alloca i32, align 4
  store ptr %0, ptr %4, align 8, !tbaa !15
  store ptr %1, ptr %5, align 8, !tbaa !15
  store ptr %2, ptr %6, align 8, !tbaa !15
  call void @llvm.lifetime.start.p0(i64 8, ptr %7) #9
  %10 = load ptr, ptr %4, align 8, !tbaa !15
  %11 = ptrtoint ptr %10 to i64
  %12 = urem i64 %11, 257
  %13 = getelementptr [257 x %struct.Bucket], ptr @buckets, i64 0, i64 %12
  store ptr %13, ptr %7, align 8, !tbaa !15
  %14 = load ptr, ptr %7, align 8, !tbaa !15
  %15 = getelementptr inbounds nuw %struct.Bucket, ptr %14, i32 0, i32 0
  call void @_PyRawMutex_Lock(ptr noundef %15)
  call void @llvm.lifetime.start.p0(i64 8, ptr %8) #9
  %16 = load ptr, ptr %7, align 8, !tbaa !15
  %17 = load ptr, ptr %4, align 8, !tbaa !15
  %18 = call ptr @dequeue(ptr noundef %16, ptr noundef %17)
  store ptr %18, ptr %8, align 8, !tbaa !34
  %19 = load ptr, ptr %8, align 8, !tbaa !34
  %20 = icmp ne ptr %19, null
  br i1 %20, label %21, label %33

21:                                               ; preds = %3
  call void @llvm.lifetime.start.p0(i64 4, ptr %9) #9
  %22 = load ptr, ptr %7, align 8, !tbaa !15
  %23 = getelementptr inbounds nuw %struct.Bucket, ptr %22, i32 0, i32 2
  %24 = load i64, ptr %23, align 8, !tbaa !28
  %25 = icmp ugt i64 %24, 0
  %26 = zext i1 %25 to i32
  store i32 %26, ptr %9, align 4, !tbaa !11
  %27 = load ptr, ptr %5, align 8, !tbaa !15
  %28 = load ptr, ptr %6, align 8, !tbaa !15
  %29 = load ptr, ptr %8, align 8, !tbaa !34
  %30 = getelementptr inbounds nuw %struct.wait_entry, ptr %29, i32 0, i32 0
  %31 = load ptr, ptr %30, align 8, !tbaa !16
  %32 = load i32, ptr %9, align 4, !tbaa !11
  call void %27(ptr noundef %28, ptr noundef %31, i32 noundef %32)
  call void @llvm.lifetime.end.p0(i64 4, ptr %9) #9
  br label %36

33:                                               ; preds = %3
  %34 = load ptr, ptr %5, align 8, !tbaa !15
  %35 = load ptr, ptr %6, align 8, !tbaa !15
  call void %34(ptr noundef %35, ptr noundef null, i32 noundef 0)
  br label %36

36:                                               ; preds = %33, %21
  %37 = load ptr, ptr %7, align 8, !tbaa !15
  %38 = getelementptr inbounds nuw %struct.Bucket, ptr %37, i32 0, i32 0
  call void @_PyRawMutex_Unlock(ptr noundef %38)
  %39 = load ptr, ptr %8, align 8, !tbaa !34
  %40 = icmp ne ptr %39, null
  br i1 %40, label %41, label %44

41:                                               ; preds = %36
  %42 = load ptr, ptr %8, align 8, !tbaa !34
  %43 = getelementptr inbounds nuw %struct.wait_entry, ptr %42, i32 0, i32 2
  call void @_PySemaphore_Wakeup(ptr noundef %43)
  br label %44

44:                                               ; preds = %41, %36
  call void @llvm.lifetime.end.p0(i64 8, ptr %8) #9
  call void @llvm.lifetime.end.p0(i64 8, ptr %7) #9
  ret void
}