; Function Attrs: nounwind uwtable
define dso_local void @_PyParkingLot_Unpark(ptr noundef %0, ptr noundef readonly captures(none) %1, ptr noundef %2) local_unnamed_addr #0 {
  %4 = ptrtoint ptr %0 to i64
  %5 = urem i64 %4, 257
  %6 = getelementptr [257 x %struct.Bucket], ptr @buckets, i64 0, i64 %5
  %7 = cmpxchg ptr %6, i64 0, i64 1 seq_cst seq_cst, align 8
  %8 = extractvalue { i64, i1 } %7, 1
  br i1 %8, label %_PyRawMutex_Lock.exit, label %9

9:                                                ; preds = %3
  tail call void @_PyRawMutex_LockSlow(ptr noundef %6) #9
  br label %_PyRawMutex_Lock.exit

_PyRawMutex_Lock.exit:                            ; preds = %3, %9
  %10 = getelementptr inbounds nuw i8, ptr %6, i64 8
  br label %11

11:                                               ; preds = %12, %_PyRawMutex_Lock.exit
  %.014.in.i = phi ptr [ %10, %_PyRawMutex_Lock.exit ], [ %.014.i, %12 ]
  %.014.i = load ptr, ptr %.014.in.i, align 8, !tbaa !24
  %.not.i = icmp eq ptr %.014.i, %10
  br i1 %.not.i, label %dequeue.exit.thread, label %12

12:                                               ; preds = %11
  %13 = getelementptr i8, ptr %.014.i, i64 -40
  %14 = load i64, ptr %13, align 8, !tbaa !19
  %.not15.i = icmp eq i64 %14, %4
  br i1 %.not15.i, label %dequeue.exit, label %11

dequeue.exit:                                     ; preds = %12
  %15 = getelementptr i8, ptr %.014.i, i64 -48
  %16 = getelementptr inbounds nuw i8, ptr %.014.i, i64 8
  %17 = load ptr, ptr %16, align 8, !tbaa !23
  %18 = load ptr, ptr %.014.i, align 8, !tbaa !24
  store ptr %18, ptr %17, align 8, !tbaa !24
  %19 = getelementptr inbounds nuw i8, ptr %18, i64 8
  store ptr %17, ptr %19, align 8, !tbaa !23
  tail call void @llvm.memset.p0.i64(ptr noundef nonnull align 8 dereferenceable(16) %.014.i, i8 0, i64 16, i1 false)
  %20 = getelementptr inbounds nuw i8, ptr %6, i64 24
  %21 = load i64, ptr %20, align 8, !tbaa !25
  %22 = add i64 %21, -1
  store i64 %22, ptr %20, align 8, !tbaa !25
  %23 = getelementptr i8, ptr %.014.i, i64 16
  store i8 1, ptr %23, align 8, !tbaa !28
  %.not = icmp eq ptr %15, null
  br i1 %.not, label %dequeue.exit.thread, label %24

24:                                               ; preds = %dequeue.exit
  %25 = icmp ne i64 %22, 0
  %26 = zext i1 %25 to i32
  %27 = load ptr, ptr %15, align 8, !tbaa !13
  tail call void %1(ptr noundef %2, ptr noundef %27, i32 noundef %26) #9
  br label %28

dequeue.exit.thread:                              ; preds = %11, %dequeue.exit
  tail call void %1(ptr noundef %2, ptr noundef null, i32 noundef 0) #9
  br label %28

28:                                               ; preds = %dequeue.exit.thread, %24
  %.not19 = phi i1 [ true, %dequeue.exit.thread ], [ false, %24 ]
  %.2.i17 = phi ptr [ null, %dequeue.exit.thread ], [ %15, %24 ]
  %29 = cmpxchg ptr %6, i64 1, i64 0 seq_cst seq_cst, align 8
  %30 = extractvalue { i64, i1 } %29, 1
  br i1 %30, label %_PyRawMutex_Unlock.exit, label %31

31:                                               ; preds = %28
  tail call void @_PyRawMutex_UnlockSlow(ptr noundef %6) #9
  br label %_PyRawMutex_Unlock.exit

_PyRawMutex_Unlock.exit:                          ; preds = %28, %31
  br i1 %.not19, label %_PySemaphore_Wakeup.exit, label %32

32:                                               ; preds = %_PyRawMutex_Unlock.exit
  %33 = getelementptr inbounds nuw i8, ptr %.2.i17, i64 16
  %34 = tail call i32 @sem_post(ptr noundef nonnull %33) #9
  %.not.i14 = icmp eq i32 %34, 0
  br i1 %.not.i14, label %_PySemaphore_Wakeup.exit, label %35

35:                                               ; preds = %32
  tail call void @_Py_FatalErrorFunc(ptr noundef nonnull @__func__._PySemaphore_Wakeup, ptr noundef nonnull @.str.1) #10
  unreachable

_PySemaphore_Wakeup.exit:                         ; preds = %32, %_PyRawMutex_Unlock.exit
  ret void
}